Certificate:
    Data:
        Version: 3 (0x2)
        Serial Number: 4096 (0x1000)
    Signature Algorithm: sha1WithRSAEncryption
        Issuer: C=PT, ST=COIMBRA, L=COIMBRA, O=UC, OU=DEI, CN=PEDRO/emailAddress=A
        Validity
            Not Before: Apr 26 18:20:32 2019 GMT
            Not After : Apr 25 18:20:32 2020 GMT
        Subject: C=PT, ST=COIMBRA, O=UC, OU=DEI, CN=madmax/emailAddress=mad
        Subject Public Key Info:
            Public Key Algorithm: rsaEncryption
                Public-Key: (1024 bit)
                Modulus:
                    00:a8:83:8e:a6:25:f1:6c:ea:09:41:67:02:75:0d:
                    0e:6b:10:b9:90:dc:e6:69:92:16:89:64:5b:d1:69:
                    0d:28:52:75:89:a0:a7:8c:8d:02:b1:f2:06:9a:28:
                    42:88:f3:f1:e8:de:4b:f4:97:5f:f9:46:df:a0:b5:
                    61:27:47:34:05:4c:74:03:ed:48:0d:4c:26:0d:bd:
                    b1:59:f2:73:88:c9:94:66:8a:9b:12:72:9b:10:72:
                    75:a1:48:bc:ed:85:c3:c9:88:9e:69:16:4c:7f:ad:
                    ef:c0:a0:89:3c:b5:f0:52:10:bf:70:f4:4b:36:04:
                    70:4f:a7:ff:9a:27:2c:29:e9
                Exponent: 65537 (0x10001)
        X509v3 extensions:
            X509v3 Basic Constraints: 
                CA:FALSE
            X509v3 Subject Key Identifier: 
                DA:9B:FE:83:63:14:6A:BB:B2:1C:D0:81:E8:18:D0:6F:3C:B1:11:0C
            X509v3 Authority Key Identifier: 
                DirName:/C=PT/ST=COIMBRA/L=COIMBRA/O=UC/OU=DEI/CN=PEDRO/emailAddress=A
                serial:D9:91:F0:DD:C0:BB:66:9B

    Signature Algorithm: sha1WithRSAEncryption
         ca:6c:a3:26:33:73:25:69:f0:a8:a0:f4:ac:06:1d:35:61:ca:
         16:f3:8a:a1:82:05:d0:22:7c:37:f2:c3:21:44:10:e8:b7:ca:
         0d:13:78:b3:b5:47:76:0a:83:dd:ea:28:49:b7:9d:06:77:79:
         71:a4:8f:97:d3:05:5a:99:45:4e:46:29:0b:bd:0e:83:d1:e9:
         85:4a:1a:37:d8:14:f8:25:a4:cf:b2:74:ad:3a:c8:75:ed:63:
         99:f3:58:0b:4c:73:7d:b9:3b:03:ca:07:2e:c1:16:90:09:d9:
         85:1b:44:88:58:1c:40:fe:db:92:05:42:b3:3c:15:ef:0a:ef:
         dc:02
-----BEGIN CERTIFICATE-----
MIIC/jCCAmegAwIBAgICEAAwDQYJKoZIhvcNAQEFBQAwbjELMAkGA1UEBhMCUFQx
EDAOBgNVBAgMB0NPSU1CUkExEDAOBgNVBAcMB0NPSU1CUkExCzAJBgNVBAoMAlVD
MQwwCgYDVQQLDANERUkxDjAMBgNVBAMMBVBFRFJPMRAwDgYJKoZIhvcNAQkBFgFB
MB4XDTE5MDQyNjE4MjAzMloXDTIwMDQyNTE4MjAzMlowXzELMAkGA1UEBhMCUFQx
EDAOBgNVBAgMB0NPSU1CUkExCzAJBgNVBAoMAlVDMQwwCgYDVQQLDANERUkxDzAN
BgNVBAMMBm1hZG1heDESMBAGCSqGSIb3DQEJARYDbWFkMIGfMA0GCSqGSIb3DQEB
AQUAA4GNADCBiQKBgQCog46mJfFs6glBZwJ1DQ5rELmQ3OZpkhaJZFvRaQ0oUnWJ
oKeMjQKx8gaaKEKI8/Ho3kv0l1/5Rt+gtWEnRzQFTHQD7UgNTCYNvbFZ8nOIyZRm
ipsScpsQcnWhSLzthcPJiJ5pFkx/re/AoIk8tfBSEL9w9Es2BHBPp/+aJywp6QID
AQABo4G5MIG2MAkGA1UdEwQCMAAwHQYDVR0OBBYEFNqb/oNjFGq7shzQgegY0G88
sREMMIGJBgNVHSMEgYEwf6FypHAwbjELMAkGA1UEBhMCUFQxEDAOBgNVBAgMB0NP
SU1CUkExEDAOBgNVBAcMB0NPSU1CUkExCzAJBgNVBAoMAlVDMQwwCgYDVQQLDANE
RUkxDjAMBgNVBAMMBVBFRFJPMRAwDgYJKoZIhvcNAQkBFgFBggkA2ZHw3cC7Zpsw
DQYJKoZIhvcNAQEFBQADgYEAymyjJjNzJWnwqKD0rAYdNWHKFvOKoYIF0CJ8N/LD
IUQQ6LfKDRN4s7VHdgqD3eooSbedBnd5caSPl9MFWplFTkYpC70Og9HphUoaN9gU
+CWkz7J0rTrIde1jmfNYC0xzfbk7A8oHLsEWkAnZhRtEiFgcQP7bkgVCszwV7wrv
3AI=
-----END CERTIFICATE-----
