Certificate:
    Data:
        Version: 3 (0x2)
        Serial Number: 4098 (0x1002)
    Signature Algorithm: sha1WithRSAEncryption
        Issuer: C=PT, ST=COIMBRA, L=COIMBRA, O=UC, OU=DEI, CN=A/emailAddress=A
        Validity
            Not Before: Aug 13 08:00:00 2015 GMT
            Not After : Aug 13 09:00:00 2025 GMT
        Subject: C=PT, ST=COIMBRA, L=COIMBRA, O=UC, OU=DEI, CN=B/emailAddress=B
        Subject Public Key Info:
            Public Key Algorithm: rsaEncryption
                Public-Key: (1024 bit)
                Modulus:
                    00:d4:1e:12:58:43:eb:f4:c3:b7:db:86:03:b3:be:
                    a4:07:d7:93:ec:2f:71:18:7d:2e:05:52:e5:22:34:
                    0a:40:c3:c6:41:6f:9d:9c:6b:49:15:f5:34:32:22:
                    74:fc:fb:45:02:4d:1d:93:34:5d:39:d9:12:fa:c5:
                    b4:ff:a1:97:ae:ed:c3:c4:b5:67:61:aa:45:4a:c8:
                    67:fc:87:50:b7:1f:ae:c1:8c:04:d6:e5:c6:eb:d4:
                    68:a6:44:0e:34:db:e8:0d:de:e2:3b:ba:92:52:ba:
                    63:4b:27:94:43:19:88:68:99:df:73:74:98:93:6c:
                    11:c4:d2:9b:34:25:ac:a1:99
                Exponent: 65537 (0x10001)
        X509v3 extensions:
            Authority Information Access: 
                OCSP - URI:http://127.0.0.1:8080

            X509v3 Basic Constraints: 
                CA:FALSE
            X509v3 Subject Key Identifier: 
                74:5E:A5:62:74:14:8D:2E:44:EA:86:77:DB:AF:18:A2:0A:14:3A:EE
            X509v3 Authority Key Identifier: 
                keyid:59:F5:4D:9F:71:61:54:F9:B4:12:AB:20:E6:DA:93:1F:B3:A7:43:AD

    Signature Algorithm: sha1WithRSAEncryption
         73:66:b6:bb:c3:c7:77:da:64:68:91:0b:c9:12:83:86:76:c8:
         53:c6:e6:17:3d:87:f9:f3:af:05:66:41:68:93:84:78:f6:0c:
         78:82:d6:2f:aa:70:21:1e:34:64:9a:a2:70:52:23:61:7c:f2:
         33:3f:a7:23:7f:05:a6:3f:47:6b:e9:b2:94:7e:3b:1c:7a:4e:
         58:04:03:1e:d5:ff:c5:8d:6f:a6:e3:6a:6f:17:cb:3d:a9:3e:
         06:69:b6:40:e7:cc:07:15:2a:68:c8:da:81:2d:b2:04:c6:18:
         5f:4a:ec:43:00:06:62:a7:2e:71:9e:4d:eb:22:3f:07:81:0c:
         2f:08
-----BEGIN CERTIFICATE-----
MIICzDCCAjWgAwIBAgICEAIwDQYJKoZIhvcNAQEFBQAwajELMAkGA1UEBhMCUFQx
EDAOBgNVBAgTB0NPSU1CUkExEDAOBgNVBAcTB0NPSU1CUkExCzAJBgNVBAoTAlVD
MQwwCgYDVQQLEwNERUkxCjAIBgNVBAMTAUExEDAOBgkqhkiG9w0BCQEWAUEwHhcN
MTUwODEzMDgwMDAwWhcNMjUwODEzMDkwMDAwWjBqMQswCQYDVQQGEwJQVDEQMA4G
A1UECBMHQ09JTUJSQTEQMA4GA1UEBxMHQ09JTUJSQTELMAkGA1UEChMCVUMxDDAK
BgNVBAsTA0RFSTEKMAgGA1UEAxMBQjEQMA4GCSqGSIb3DQEJARYBQjCBnzANBgkq
hkiG9w0BAQEFAAOBjQAwgYkCgYEA1B4SWEPr9MO324YDs76kB9eT7C9xGH0uBVLl
IjQKQMPGQW+dnGtJFfU0MiJ0/PtFAk0dkzRdOdkS+sW0/6GXru3DxLVnYapFSshn
/IdQtx+uwYwE1uXG69RopkQONNvoDd7iO7qSUrpjSyeUQxmIaJnfc3SYk2wRxNKb
NCWsoZkCAwEAAaOBgDB+MDEGCCsGAQUFBwEBBCUwIzAhBggrBgEFBQcwAYYVaHR0
cDovLzEyNy4wLjAuMTo4MDgwMAkGA1UdEwQCMAAwHQYDVR0OBBYEFHRepWJ0FI0u
ROqGd9uvGKIKFDruMB8GA1UdIwQYMBaAFFn1TZ9xYVT5tBKrIObakx+zp0OtMA0G
CSqGSIb3DQEBBQUAA4GBAHNmtrvDx3faZGiRC8kSg4Z2yFPG5hc9h/nzrwVmQWiT
hHj2DHiC1i+qcCEeNGSaonBSI2F88jM/pyN/BaY/R2vpspR+Oxx6TlgEAx7V/8WN
b6bjam8Xyz2pPgZptkDnzAcVKmjI2oEtsgTGGF9K7EMABmKnLnGeTesiPweBDC8I
-----END CERTIFICATE-----
