Certificate:
    Data:
        Version: 3 (0x2)
        Serial Number: 4100 (0x1004)
    Signature Algorithm: sha1WithRSAEncryption
        Issuer: C=PT, ST=COIMBRA, L=COIMBRA, O=UC, OU=DEI, CN=A/emailAddress=A
        Validity
            Not Before: Apr 26 22:47:50 2019 GMT
            Not After : Apr 25 22:47:50 2020 GMT
        Subject: C=PT, ST=COIMBRA, O=UC, OU=DEI, CN=C/emailAddress=C@C.COM
        Subject Public Key Info:
            Public Key Algorithm: rsaEncryption
                Public-Key: (2048 bit)
                Modulus:
                    00:a5:6c:6b:89:a5:01:ab:24:8e:d5:92:60:97:6c:
                    26:cc:19:5a:8c:b0:28:99:03:38:e1:16:5b:b4:d2:
                    29:d7:5f:6c:1b:70:92:f4:76:33:a0:4f:06:4e:76:
                    37:9f:75:21:3c:48:0d:f2:08:10:5b:11:2d:87:25:
                    8b:4b:89:86:1d:94:8c:bc:2f:0c:d0:e2:7b:5e:34:
                    9a:e9:ba:4b:19:36:a0:ab:e4:59:d8:10:4b:cf:39:
                    e3:ce:fa:33:76:80:99:e4:e9:07:2e:5e:3e:fd:c5:
                    37:33:b2:af:43:d8:63:9b:00:b3:88:0a:23:47:af:
                    49:14:dc:9a:ed:11:b4:ea:aa:ec:82:f1:ec:89:4e:
                    a1:04:2b:91:38:89:9c:db:0d:33:17:a9:9c:e8:77:
                    c7:16:ea:42:68:90:88:df:f0:5c:9c:b4:bd:ff:ba:
                    d9:81:c9:85:ef:c0:d5:39:2f:1d:f6:2d:ac:e6:ea:
                    78:cb:2f:28:65:42:40:bf:1f:81:2d:88:97:05:09:
                    76:6a:e0:64:73:27:11:de:20:79:cb:df:ea:c1:f1:
                    5b:4e:fd:97:1f:2f:f3:0a:43:88:31:25:c2:f0:81:
                    a9:c1:fd:c7:bb:6d:bf:1a:be:7a:28:a5:05:0b:88:
                    c3:1c:62:c7:7c:1d:73:6f:de:50:26:6b:4a:97:85:
                    08:6d
                Exponent: 65537 (0x10001)
        X509v3 extensions:
            Authority Information Access: 
                OCSP - URI:http://127.0.0.1:8080

            X509v3 Basic Constraints: 
                CA:FALSE
            X509v3 Subject Key Identifier: 
                F1:E7:8C:46:D7:27:86:17:64:47:1D:E3:BA:AB:7F:DD:D7:DA:74:7C
            X509v3 Authority Key Identifier: 
                keyid:18:EA:69:0F:75:B8:81:56:9C:3A:90:E6:5E:86:87:A5:D8:F7:AF:42

    Signature Algorithm: sha1WithRSAEncryption
         59:60:76:5d:99:95:9c:71:84:ab:88:a1:10:f2:30:d6:12:55:
         95:23:4f:fb:d2:38:9f:42:e3:36:f6:d3:70:92:7e:ca:97:ea:
         13:86:f9:09:96:78:c6:86:59:a2:e4:3a:f8:c5:6b:86:c4:6e:
         01:76:3d:bd:71:89:84:ed:76:67:b2:24:48:02:bf:dd:22:fa:
         b1:da:40:e8:98:15:52:ae:45:7b:cb:c2:9e:92:fb:53:2b:9e:
         f5:ed:a4:ee:b9:67:54:90:fb:f2:8e:b5:1d:86:7f:d5:fc:4f:
         c8:82:31:aa:ff:19:3c:2d:d8:24:9c:13:e3:32:c6:3b:f8:8c:
         d2:a9
-----BEGIN CERTIFICATE-----
MIIDRDCCAq2gAwIBAgICEAQwDQYJKoZIhvcNAQEFBQAwajELMAkGA1UEBhMCUFQx
EDAOBgNVBAgTB0NPSU1CUkExEDAOBgNVBAcTB0NPSU1CUkExCzAJBgNVBAoTAlVD
MQwwCgYDVQQLEwNERUkxCjAIBgNVBAMTAUExEDAOBgkqhkiG9w0BCQEWAUEwHhcN
MTkwNDI2MjI0NzUwWhcNMjAwNDI1MjI0NzUwWjBeMQswCQYDVQQGEwJQVDEQMA4G
A1UECAwHQ09JTUJSQTELMAkGA1UECgwCVUMxDDAKBgNVBAsMA0RFSTEKMAgGA1UE
AwwBQzEWMBQGCSqGSIb3DQEJARYHQ0BDLkNPTTCCASIwDQYJKoZIhvcNAQEBBQAD
ggEPADCCAQoCggEBAKVsa4mlAaskjtWSYJdsJswZWoywKJkDOOEWW7TSKddfbBtw
kvR2M6BPBk52N591ITxIDfIIEFsRLYcli0uJhh2UjLwvDNDie140mum6Sxk2oKvk
WdgQS8854876M3aAmeTpBy5ePv3FNzOyr0PYY5sAs4gKI0evSRTcmu0RtOqq7ILx
7IlOoQQrkTiJnNsNMxepnOh3xxbqQmiQiN/wXJy0vf+62YHJhe/A1TkvHfYtrObq
eMsvKGVCQL8fgS2IlwUJdmrgZHMnEd4gecvf6sHxW079lx8v8wpDiDElwvCBqcH9
x7ttvxq+eiilBQuIwxxix3wdc2/eUCZrSpeFCG0CAwEAAaOBgDB+MDEGCCsGAQUF
BwEBBCUwIzAhBggrBgEFBQcwAYYVaHR0cDovLzEyNy4wLjAuMTo4MDgwMAkGA1Ud
EwQCMAAwHQYDVR0OBBYEFPHnjEbXJ4YXZEcd47qrf93X2nR8MB8GA1UdIwQYMBaA
FBjqaQ91uIFWnDqQ5l6Gh6XY969CMA0GCSqGSIb3DQEBBQUAA4GBAFlgdl2ZlZxx
hKuIoRDyMNYSVZUjT/vSOJ9C4zb203CSfsqX6hOG+QmWeMaGWaLkOvjFa4bEbgF2
Pb1xiYTtdmeyJEgCv90i+rHaQOiYFVKuRXvLwp6S+1MrnvXtpO65Z1SQ+/KOtR2G
f9X8T8iCMar/GTwt2CScE+Myxjv4jNKp
-----END CERTIFICATE-----
