Certificate:
    Data:
        Version: 3 (0x2)
        Serial Number: 4101 (0x1005)
    Signature Algorithm: sha1WithRSAEncryption
        Issuer: C=PT, ST=COIMBRA, L=COIMBRA, O=UC, OU=DEI, CN=A/emailAddress=A
        Validity
            Not Before: Apr 26 23:09:04 2019 GMT
            Not After : Apr 25 23:09:04 2020 GMT
        Subject: C=PT, ST=COIMBRA, O=UC, OU=DEI, CN=F/emailAddress=F@F.COM
        Subject Public Key Info:
            Public Key Algorithm: rsaEncryption
                Public-Key: (1024 bit)
                Modulus:
                    00:be:69:78:b7:f9:ea:ee:1d:75:ab:0b:05:d0:60:
                    ee:ad:b9:c7:cd:e8:21:02:ff:9f:26:9e:b7:29:22:
                    45:e0:e4:4f:77:55:d9:f1:d2:9d:13:af:b8:71:9e:
                    86:b6:e3:c7:fc:84:c3:7e:7b:40:da:a1:56:61:ff:
                    12:96:b6:22:78:30:ff:b8:3d:6b:a9:54:57:b4:5b:
                    6c:ae:10:33:1f:b4:f0:b6:09:ce:9a:6b:79:be:84:
                    ad:a6:15:82:a7:59:b4:9d:52:c7:75:a0:81:19:f0:
                    08:5f:fc:ee:82:46:95:ab:67:a6:9e:1e:41:0d:2d:
                    4a:98:f7:ea:40:a7:3f:2c:cb
                Exponent: 65537 (0x10001)
        X509v3 extensions:
            Authority Information Access: 
                OCSP - URI:http://127.0.0.1:8080

            X509v3 Basic Constraints: 
                CA:FALSE
            X509v3 Subject Key Identifier: 
                5D:D4:0F:BA:B4:A9:F7:1F:27:37:8B:1C:58:13:B2:9C:05:C6:D0:65
            X509v3 Authority Key Identifier: 
                keyid:18:EA:69:0F:75:B8:81:56:9C:3A:90:E6:5E:86:87:A5:D8:F7:AF:42

    Signature Algorithm: sha1WithRSAEncryption
         7d:f6:69:f5:54:34:36:4c:77:55:e4:bd:24:0f:bf:07:2e:93:
         d2:22:13:e4:2b:f8:e3:2f:7c:a2:9d:40:1a:e7:29:0c:c8:3e:
         d1:67:db:69:81:07:84:fd:9b:15:df:58:3c:42:dc:f5:eb:72:
         9f:7a:b0:07:71:a8:08:85:3a:06:ff:77:7b:70:25:71:67:2d:
         d5:db:71:28:4d:5d:f0:88:d5:16:0f:aa:25:de:6e:ed:17:c6:
         9c:e2:86:8a:bd:c9:24:66:65:b8:7b:18:2b:29:54:b7:2d:3c:
         41:b0:ba:5a:55:b1:7a:34:a9:60:53:12:79:b0:ac:4e:25:05:
         7b:ad
-----BEGIN CERTIFICATE-----
MIICwDCCAimgAwIBAgICEAUwDQYJKoZIhvcNAQEFBQAwajELMAkGA1UEBhMCUFQx
EDAOBgNVBAgTB0NPSU1CUkExEDAOBgNVBAcTB0NPSU1CUkExCzAJBgNVBAoTAlVD
MQwwCgYDVQQLEwNERUkxCjAIBgNVBAMTAUExEDAOBgkqhkiG9w0BCQEWAUEwHhcN
MTkwNDI2MjMwOTA0WhcNMjAwNDI1MjMwOTA0WjBeMQswCQYDVQQGEwJQVDEQMA4G
A1UECAwHQ09JTUJSQTELMAkGA1UECgwCVUMxDDAKBgNVBAsMA0RFSTEKMAgGA1UE
AwwBRjEWMBQGCSqGSIb3DQEJARYHRkBGLkNPTTCBnzANBgkqhkiG9w0BAQEFAAOB
jQAwgYkCgYEAvml4t/nq7h11qwsF0GDurbnHzeghAv+fJp63KSJF4ORPd1XZ8dKd
E6+4cZ6GtuPH/ITDfntA2qFWYf8SlrYieDD/uD1rqVRXtFtsrhAzH7TwtgnOmmt5
voStphWCp1m0nVLHdaCBGfAIX/zugkaVq2emnh5BDS1KmPfqQKc/LMsCAwEAAaOB
gDB+MDEGCCsGAQUFBwEBBCUwIzAhBggrBgEFBQcwAYYVaHR0cDovLzEyNy4wLjAu
MTo4MDgwMAkGA1UdEwQCMAAwHQYDVR0OBBYEFF3UD7q0qfcfJzeLHFgTspwFxtBl
MB8GA1UdIwQYMBaAFBjqaQ91uIFWnDqQ5l6Gh6XY969CMA0GCSqGSIb3DQEBBQUA
A4GBAH32afVUNDZMd1XkvSQPvwcuk9IiE+Qr+OMvfKKdQBrnKQzIPtFn22mBB4T9
mxXfWDxC3PXrcp96sAdxqAiFOgb/d3twJXFnLdXbcShNXfCI1RYPqiXebu0Xxpzi
hoq9ySRmZbh7GCspVLctPEGwulpVsXo0qWBTEnmwrE4lBXut
-----END CERTIFICATE-----
